; Function Attrs: mustprogress nounwind uwtable
define hidden void @_ZN18G1ConcurrentRefine10threads_doEP13ThreadClosure(ptr nocapture noundef nonnull readonly align 8 dereferenceable(136) %0, ptr noundef %1) local_unnamed_addr #0 align 2 {
  %3 = getelementptr inbounds i8, ptr %0, i64 112
  %4 = load i32, ptr %3, align 8
  %.not10.i = icmp eq i32 %4, 0
  br i1 %.not10.i, label %_ZN31G1ConcurrentRefineThreadControl17worker_threads_doEP13ThreadClosure.exit, label %.lr.ph.i

.lr.ph.i:                                         ; preds = %2
  %5 = getelementptr inbounds i8, ptr %0, i64 120
  %6 = zext i32 %4 to i64
  br label %7

7:                                                ; preds = %7, %.lr.ph.i
  %indvars.iv.i = phi i64 [ 0, %.lr.ph.i ], [ %indvars.iv.next.i, %7 ]
  %8 = load ptr, ptr %5, align 8
  %9 = getelementptr inbounds ptr, ptr %8, i64 %indvars.iv.i
  %10 = load ptr, ptr %9, align 8
  %11 = load ptr, ptr %1, align 8
  %12 = load ptr, ptr %11, align 8
  tail call void %12(ptr noundef nonnull align 8 dereferenceable(8) %1, ptr noundef %10) #17
  %indvars.iv.next.i = add nuw nsw i64 %indvars.iv.i, 1
  %.not.i = icmp eq i64 %indvars.iv.next.i, %6
  br i1 %.not.i, label %_ZN31G1ConcurrentRefineThreadControl17worker_threads_doEP13ThreadClosure.exit, label %7

_ZN31G1ConcurrentRefineThreadControl17worker_threads_doEP13ThreadClosure.exit: ; preds = %7, %2
  ret void
}